; Function Attrs: mustprogress uwtable
define void @_ZN5faiss15IndexBinaryHNSWC2EPNS_11IndexBinaryEi(ptr noundef nonnull align 8 dereferenceable(5200) %0, ptr noundef %1, i32 noundef %2) unnamed_addr #1 align 2 personality ptr @__gxx_personality_v0 {
  %4 = getelementptr inbounds i8, ptr %1, i64 8
  %5 = load i32, ptr %4, align 8
  %6 = sext i32 %5 to i64
  tail call void @_ZN5faiss11IndexBinaryC2ElNS_10MetricTypeE(ptr noundef nonnull align 8 dereferenceable(32) %0, i64 noundef %6, i32 noundef 1)
  store ptr getelementptr inbounds ({ [16 x ptr] }, ptr @_ZTVN5faiss15IndexBinaryHNSWE, i64 0, i32 0, i64 2), ptr %0, align 8
  %7 = getelementptr inbounds i8, ptr %0, i64 32
  invoke void @_ZN5faiss4HNSWC1Ei(ptr noundef nonnull align 8 dereferenceable(5149) %7, i32 noundef %2)
          to label %8 unwind label %12

8:                                                ; preds = %3
  %9 = getelementptr inbounds i8, ptr %0, i64 5184
  store i8 0, ptr %9, align 8
  %10 = getelementptr inbounds i8, ptr %0, i64 5192
  store ptr %1, ptr %10, align 8
  %11 = getelementptr inbounds i8, ptr %0, i64 25
  store i8 1, ptr %11, align 1
  ret void

12:                                               ; preds = %3
  %13 = landingpad { ptr, i32 }
          cleanup
  tail call void @_ZN5faiss11IndexBinaryD2Ev(ptr noundef nonnull align 8 dereferenceable(32) %0) #9
  resume { ptr, i32 } %13
}